#include <math.h>
#include <stdio.h>
#include <stdlib.h>
#include <string.h>


int fit(char *p){
	if((*p>=65&&*p<=90)||(*p>=97&&*p<=122)||*p==95){
		p++;
	}else{
		return 0;
	}
	for(;*p!='\0';p++){
		if((*p>=65&&*p<=90)||(*p>=97&&*p<=122)||*p==95||(*p>=48&&*p<=57)){
			continue;
		}else{
			return 0;
		}
	}
	return 1;
}
int main(int argc, char* argv[])
{
	int n,i;
	char sz[81],*p;
	p=sz;
	scanf("%d",&n);
	getchar();
	for(i=0;i<n;i++){
		gets(p);
		if(fit(p)){
			printf("1\n");
		}else{
			printf("0\n");
		}
	}
	return 0;
}
