; ModuleID = '58/1270.c'
source_filename = "58/1270.c"
target datalayout = "e-m:e-p270:32:32-p271:32:32-p272:64:64-i64:64-f80:128-n8:16:32:64-S128"
target triple = "x86_64-pc-linux-gnu"

@.str = private unnamed_addr constant [3 x i8] c"%d\00", align 1
@.str.1 = private unnamed_addr constant [3 x i8] c"1\0A\00", align 1
@.str.2 = private unnamed_addr constant [3 x i8] c"0\0A\00", align 1

; Function Attrs: noinline nounwind uwtable
define dso_local i32 @fit(i8* %0) #0 {
  %2 = alloca i32, align 4
  %3 = alloca i8*, align 8
  store i8* %0, i8** %3, align 8
  %4 = load i8*, i8** %3, align 8
  %5 = load i8, i8* %4, align 1
  %6 = sext i8 %5 to i32
  %7 = icmp sge i32 %6, 65
  br i1 %7, label %8, label %13

8:                                                ; preds = %1
  %9 = load i8*, i8** %3, align 8
  %10 = load i8, i8* %9, align 1
  %11 = sext i8 %10 to i32
  %12 = icmp sle i32 %11, 90
  br i1 %12, label %28, label %13

13:                                               ; preds = %8, %1
  %14 = load i8*, i8** %3, align 8
  %15 = load i8, i8* %14, align 1
  %16 = sext i8 %15 to i32
  %17 = icmp sge i32 %16, 97
  br i1 %17, label %18, label %23

18:                                               ; preds = %13
  %19 = load i8*, i8** %3, align 8
  %20 = load i8, i8* %19, align 1
  %21 = sext i8 %20 to i32
  %22 = icmp sle i32 %21, 122
  br i1 %22, label %28, label %23

23:                                               ; preds = %18, %13
  %24 = load i8*, i8** %3, align 8
  %25 = load i8, i8* %24, align 1
  %26 = sext i8 %25 to i32
  %27 = icmp eq i32 %26, 95
  br i1 %27, label %28, label %31

28:                                               ; preds = %23, %18, %8
  %29 = load i8*, i8** %3, align 8
  %30 = getelementptr inbounds i8, i8* %29, i32 1
  store i8* %30, i8** %3, align 8
  br label %32

31:                                               ; preds = %23
  store i32 0, i32* %2, align 4
  br label %79

32:                                               ; preds = %28
  br label %33

33:                                               ; preds = %75, %32
  %34 = load i8*, i8** %3, align 8
  %35 = load i8, i8* %34, align 1
  %36 = sext i8 %35 to i32
  %37 = icmp ne i32 %36, 0
  br i1 %37, label %38, label %78

38:                                               ; preds = %33
  %39 = load i8*, i8** %3, align 8
  %40 = load i8, i8* %39, align 1
  %41 = sext i8 %40 to i32
  %42 = icmp sge i32 %41, 65
  br i1 %42, label %43, label %48

43:                                               ; preds = %38
  %44 = load i8*, i8** %3, align 8
  %45 = load i8, i8* %44, align 1
  %46 = sext i8 %45 to i32
  %47 = icmp sle i32 %46, 90
  br i1 %47, label %73, label %48

48:                                               ; preds = %43, %38
  %49 = load i8*, i8** %3, align 8
  %50 = load i8, i8* %49, align 1
  %51 = sext i8 %50 to i32
  %52 = icmp sge i32 %51, 97
  br i1 %52, label %53, label %58

53:                                               ; preds = %48
  %54 = load i8*, i8** %3, align 8
  %55 = load i8, i8* %54, align 1
  %56 = sext i8 %55 to i32
  %57 = icmp sle i32 %56, 122
  br i1 %57, label %73, label %58

58:                                               ; preds = %53, %48
  %59 = load i8*, i8** %3, align 8
  %60 = load i8, i8* %59, align 1
  %61 = sext i8 %60 to i32
  %62 = icmp eq i32 %61, 95
  br i1 %62, label %73, label %63

63:                                               ; preds = %58
  %64 = load i8*, i8** %3, align 8
  %65 = load i8, i8* %64, align 1
  %66 = sext i8 %65 to i32
  %67 = icmp sge i32 %66, 48
  br i1 %67, label %68, label %74

68:                                               ; preds = %63
  %69 = load i8*, i8** %3, align 8
  %70 = load i8, i8* %69, align 1
  %71 = sext i8 %70 to i32
  %72 = icmp sle i32 %71, 57
  br i1 %72, label %73, label %74

73:                                               ; preds = %68, %58, %53, %43
  br label %75

74:                                               ; preds = %68, %63
  store i32 0, i32* %2, align 4
  br label %79

75:                                               ; preds = %73
  %76 = load i8*, i8** %3, align 8
  %77 = getelementptr inbounds i8, i8* %76, i32 1
  store i8* %77, i8** %3, align 8
  br label %33

78:                                               ; preds = %33
  store i32 1, i32* %2, align 4
  br label %79

79:                                               ; preds = %78, %74, %31
  %80 = load i32, i32* %2, align 4
  ret i32 %80
}

; Function Attrs: noinline nounwind uwtable
define dso_local i32 @main(i32 %0, i8** %1) #0 {
  %3 = alloca i32, align 4
  %4 = alloca i32, align 4
  %5 = alloca i8**, align 8
  %6 = alloca i32, align 4
  %7 = alloca i32, align 4
  %8 = alloca [81 x i8], align 16
  %9 = alloca i8*, align 8
  store i32 0, i32* %3, align 4
  store i32 %0, i32* %4, align 4
  store i8** %1, i8*** %5, align 8
  %10 = getelementptr inbounds [81 x i8], [81 x i8]* %8, i64 0, i64 0
  store i8* %10, i8** %9, align 8
  %11 = call i32 (i8*, ...) @__isoc99_scanf(i8* getelementptr inbounds ([3 x i8], [3 x i8]* @.str, i64 0, i64 0), i32* %6)
  %12 = call i32 @getchar()
  store i32 0, i32* %7, align 4
  br label %13

13:                                               ; preds = %28, %2
  %14 = load i32, i32* %7, align 4
  %15 = load i32, i32* %6, align 4
  %16 = icmp slt i32 %14, %15
  br i1 %16, label %17, label %31

17:                                               ; preds = %13
  %18 = load i8*, i8** %9, align 8
  %19 = call i32 (i8*, ...) bitcast (i32 (...)* @gets to i32 (i8*, ...)*)(i8* %18)
  %20 = load i8*, i8** %9, align 8
  %21 = call i32 @fit(i8* %20)
  %22 = icmp ne i32 %21, 0
  br i1 %22, label %23, label %25

23:                                               ; preds = %17
  %24 = call i32 (i8*, ...) @printf(i8* getelementptr inbounds ([3 x i8], [3 x i8]* @.str.1, i64 0, i64 0))
  br label %27

25:                                               ; preds = %17
  %26 = call i32 (i8*, ...) @printf(i8* getelementptr inbounds ([3 x i8], [3 x i8]* @.str.2, i64 0, i64 0))
  br label %27

27:                                               ; preds = %25, %23
  br label %28

28:                                               ; preds = %27
  %29 = load i32, i32* %7, align 4
  %30 = add nsw i32 %29, 1
  store i32 %30, i32* %7, align 4
  br label %13

31:                                               ; preds = %13
  ret i32 0
}

declare dso_local i32 @__isoc99_scanf(i8*, ...) #1

declare dso_local i32 @getchar() #1

declare dso_local i32 @gets(...) #1

declare dso_local i32 @printf(i8*, ...) #1


!llvm.module.flags = !{!0}
!llvm.ident = !{!1}

!0 = !{i32 1, !"wchar_size", i32 4}
!1 = !{!"clang version 10.0.0-4ubuntu1 "}
