; ModuleID = 'source-C-CXX/57/1270.c'
source_filename = "source-C-CXX/57/1270.c"
target datalayout = "e-m:e-p270:32:32-p271:32:32-p272:64:64-i64:64-f80:128-n8:16:32:64-S128"
target triple = "x86_64-pc-linux-gnu"

%struct._IO_FILE = type { i32, i8*, i8*, i8*, i8*, i8*, i8*, i8*, i8*, i8*, i8*, i8*, %struct._IO_marker*, %struct._IO_FILE*, i32, i32, i64, i16, i8, [1 x i8], i8*, i64, %struct._IO_codecvt*, %struct._IO_wide_data*, %struct._IO_FILE*, i8*, i64, i32, [20 x i8] }
%struct._IO_marker = type opaque
%struct._IO_codecvt = type opaque
%struct._IO_wide_data = type opaque

@.str = private unnamed_addr constant [3 x i8] c"%d\00", align 1
@stdin = external local_unnamed_addr global %struct._IO_FILE*, align 8
@str = private unnamed_addr constant [2 x i8] c"0\00", align 1
@str.3 = private unnamed_addr constant [2 x i8] c"1\00", align 1

; Function Attrs: nofree norecurse nosync nounwind readonly sspstrong uwtable
define dso_local i32 @fit(i8* nocapture readonly %0) local_unnamed_addr #0 {
  %2 = load i8, i8* %0, align 1, !tbaa !5
  %3 = add i8 %2, -65
  %4 = icmp ult i8 %3, 26
  br i1 %4, label %10, label %5

5:                                                ; preds = %1
  %6 = add i8 %2, -97
  %7 = icmp ult i8 %6, 26
  %8 = icmp eq i8 %2, 95
  %9 = or i1 %8, %7
  br i1 %9, label %10, label %31

10:                                               ; preds = %5, %1
  %11 = getelementptr inbounds i8, i8* %0, i64 1
  %12 = load i8, i8* %11, align 1, !tbaa !5
  %13 = icmp eq i8 %12, 0
  br i1 %13, label %31, label %14

14:                                               ; preds = %10, %27
  %15 = phi i8 [ %29, %27 ], [ %12, %10 ]
  %16 = phi i8* [ %28, %27 ], [ %11, %10 ]
  %17 = add i8 %15, -65
  %18 = icmp ult i8 %17, 26
  br i1 %18, label %27, label %19

19:                                               ; preds = %14
  %20 = add i8 %15, -97
  %21 = icmp ult i8 %20, 26
  %22 = icmp eq i8 %15, 95
  %23 = or i1 %22, %21
  %24 = add i8 %15, -48
  %25 = icmp ult i8 %24, 10
  %26 = or i1 %25, %23
  br i1 %26, label %27, label %31

27:                                               ; preds = %19, %14
  %28 = getelementptr inbounds i8, i8* %16, i64 1
  %29 = load i8, i8* %28, align 1, !tbaa !5
  %30 = icmp eq i8 %29, 0
  br i1 %30, label %31, label %14, !llvm.loop !8

31:                                               ; preds = %27, %19, %10, %5
  %32 = phi i32 [ 0, %5 ], [ 1, %10 ], [ 1, %27 ], [ 0, %19 ]
  ret i32 %32
}

; Function Attrs: nounwind sspstrong uwtable
define dso_local i32 @main(i32 %0, i8** nocapture readnone %1) local_unnamed_addr #1 {
  %3 = alloca i32, align 4
  %4 = alloca [81 x i8], align 16
  %5 = bitcast i32* %3 to i8*
  call void @llvm.lifetime.start.p0i8(i64 4, i8* nonnull %5) #6
  %6 = getelementptr inbounds [81 x i8], [81 x i8]* %4, i64 0, i64 0
  call void @llvm.lifetime.start.p0i8(i64 81, i8* nonnull %6) #6
  %7 = call i32 (i8*, ...) @__isoc99_scanf(i8* getelementptr inbounds ([3 x i8], [3 x i8]* @.str, i64 0, i64 0), i32* nonnull %3)
  %8 = load %struct._IO_FILE*, %struct._IO_FILE** @stdin, align 8, !tbaa !10
  %9 = call i32 @getc(%struct._IO_FILE* %8) #6
  %10 = getelementptr inbounds [81 x i8], [81 x i8]* %4, i64 0, i64 1
  %11 = load i32, i32* %3, align 4, !tbaa !12
  %12 = icmp sgt i32 %11, 0
  br i1 %12, label %13, label %50

13:                                               ; preds = %2, %44
  %14 = phi i32 [ %47, %44 ], [ 0, %2 ]
  %15 = call i32 (i8*, ...) bitcast (i32 (...)* @gets to i32 (i8*, ...)*)(i8* nonnull %6) #6
  %16 = load i8, i8* %6, align 16, !tbaa !5
  %17 = add i8 %16, -65
  %18 = icmp ult i8 %17, 26
  br i1 %18, label %24, label %19

19:                                               ; preds = %13
  %20 = add i8 %16, -97
  %21 = icmp ult i8 %20, 26
  %22 = icmp eq i8 %16, 95
  %23 = or i1 %22, %21
  br i1 %23, label %24, label %44

24:                                               ; preds = %19, %13
  %25 = load i8, i8* %10, align 1, !tbaa !5
  %26 = icmp eq i8 %25, 0
  br i1 %26, label %44, label %27

27:                                               ; preds = %24, %40
  %28 = phi i8 [ %42, %40 ], [ %25, %24 ]
  %29 = phi i8* [ %41, %40 ], [ %10, %24 ]
  %30 = add i8 %28, -65
  %31 = icmp ult i8 %30, 26
  br i1 %31, label %40, label %32

32:                                               ; preds = %27
  %33 = add i8 %28, -97
  %34 = icmp ult i8 %33, 26
  %35 = icmp eq i8 %28, 95
  %36 = or i1 %35, %34
  %37 = add i8 %28, -48
  %38 = icmp ult i8 %37, 10
  %39 = or i1 %38, %36
  br i1 %39, label %40, label %44

40:                                               ; preds = %32, %27
  %41 = getelementptr inbounds i8, i8* %29, i64 1
  %42 = load i8, i8* %41, align 1, !tbaa !5
  %43 = icmp eq i8 %42, 0
  br i1 %43, label %44, label %27, !llvm.loop !8

44:                                               ; preds = %32, %40, %19, %24
  %45 = phi i8* [ getelementptr inbounds ([2 x i8], [2 x i8]* @str.3, i64 0, i64 0), %24 ], [ getelementptr inbounds ([2 x i8], [2 x i8]* @str, i64 0, i64 0), %19 ], [ getelementptr inbounds ([2 x i8], [2 x i8]* @str.3, i64 0, i64 0), %40 ], [ getelementptr inbounds ([2 x i8], [2 x i8]* @str, i64 0, i64 0), %32 ]
  %46 = call i32 @puts(i8* nonnull dereferenceable(1) %45)
  %47 = add nuw nsw i32 %14, 1
  %48 = load i32, i32* %3, align 4, !tbaa !12
  %49 = icmp slt i32 %47, %48
  br i1 %49, label %13, label %50, !llvm.loop !14

50:                                               ; preds = %44, %2
  call void @llvm.lifetime.end.p0i8(i64 81, i8* nonnull %6) #6
  call void @llvm.lifetime.end.p0i8(i64 4, i8* nonnull %5) #6
  ret i32 0
}

; Function Attrs: argmemonly mustprogress nofree nosync nounwind willreturn
declare void @llvm.lifetime.start.p0i8(i64 immarg, i8* nocapture) #2

; Function Attrs: nofree nounwind
declare noundef i32 @__isoc99_scanf(i8* nocapture noundef readonly, ...) local_unnamed_addr #3

declare i32 @gets(...) local_unnamed_addr #4

; Function Attrs: argmemonly mustprogress nofree nosync nounwind willreturn
declare void @llvm.lifetime.end.p0i8(i64 immarg, i8* nocapture) #2

; Function Attrs: nofree nounwind
declare noundef i32 @getc(%struct._IO_FILE* nocapture noundef) local_unnamed_addr #3

; Function Attrs: nofree nounwind
declare noundef i32 @puts(i8* nocapture noundef readonly) local_unnamed_addr #5


!llvm.module.flags = !{!0, !1, !2, !3}
!llvm.ident = !{!4}

!0 = !{i32 1, !"wchar_size", i32 4}
!1 = !{i32 7, !"PIC Level", i32 2}
!2 = !{i32 7, !"PIE Level", i32 2}
!3 = !{i32 7, !"uwtable", i32 1}
!4 = !{!"clang version 13.0.0"}
!5 = !{!6, !6, i64 0}
!6 = !{!"omnipotent char", !7, i64 0}
!7 = !{!"Simple C/C++ TBAA"}
!8 = distinct !{!8, !9}
!9 = !{!"llvm.loop.mustprogress"}
!10 = !{!11, !11, i64 0}
!11 = !{!"any pointer", !6, i64 0}
!12 = !{!13, !13, i64 0}
!13 = !{!"int", !6, i64 0}
!14 = distinct !{!14, !9}
